target datalayout = "e-m:e-p270:32:32-p271:32:32-p272:64:64-i64:64-i128:128-f80:128-n8:16:32:64-S128"
target triple = "x86_64-pc-linux-gnu"

%"class.std::__cxx11::basic_string" = type { %"struct.std::__cxx11::basic_string<char>::_Alloc_hider", i64, %union.anon }
%"struct.std::__cxx11::basic_string<char>::_Alloc_hider" = type { ptr }
%union.anon = type { i64, [8 x i8] }
%"class.absl::debian2::AlphaNum" = type { %"class.absl::debian2::string_view", [32 x i8] }
%"class.absl::debian2::string_view" = type { ptr, i64 }
%"class.std::initializer_list.6" = type { ptr, i64 }

; Function Attrs: mustprogress nounwind uwtable
define linkonce_odr dso_local { ptr, i64 } @_ZNK4absl7debian28AlphaNum5PieceEv(ptr noundef nonnull align 8 dereferenceable(48) %0) #1 comdat align 2 {
  %2 = alloca %"class.absl::debian2::string_view", align 8
  %3 = alloca ptr, align 8
  store ptr %0, ptr %3, align 8, !tbaa !11
  %4 = load ptr, ptr %3, align 8
  %5 = getelementptr inbounds nuw %"class.absl::debian2::AlphaNum", ptr %4, i32 0, i32 0
  call void @llvm.memcpy.p0.p0.i64(ptr align 8 %2, ptr align 8 %5, i64 16, i1 false), !tbaa.struct !24
  %6 = load { ptr, i64 }, ptr %2, align 8
  ret { ptr, i64 } %6
}

; Function Attrs: inlinehint mustprogress uwtable
define linkonce_odr dso_local void @_ZN4absl7debian26StrCatIJEEENSt7__cxx1112basic_stringIcSt11char_traitsIcESaIcEEERKNS0_8AlphaNumESA_SA_SA_SA_DpRKT_(ptr dead_on_unwind noalias writable sret(%"class.std::__cxx11::basic_string") align 8 %0, ptr noundef nonnull align 8 dereferenceable(48) %1, ptr noundef nonnull align 8 dereferenceable(48) %2, ptr noundef nonnull align 8 dereferenceable(48) %3, ptr noundef nonnull align 8 dereferenceable(48) %4, ptr noundef nonnull align 8 dereferenceable(48) %5) #4 comdat {
  %7 = alloca ptr, align 8
  %8 = alloca ptr, align 8
  %9 = alloca ptr, align 8
  %10 = alloca ptr, align 8
  %11 = alloca ptr, align 8
  %12 = alloca ptr, align 8
  %13 = alloca %"class.std::initializer_list.6", align 8
  %14 = alloca [5 x %"class.absl::debian2::string_view"], align 8
  store ptr %0, ptr %7, align 8
  store ptr %1, ptr %8, align 8, !tbaa !11
  store ptr %2, ptr %9, align 8, !tbaa !11
  store ptr %3, ptr %10, align 8, !tbaa !11
  store ptr %4, ptr %11, align 8, !tbaa !11
  store ptr %5, ptr %12, align 8, !tbaa !11
  call void @llvm.lifetime.start.p0(i64 80, ptr %14) #16
  %15 = load ptr, ptr %8, align 8, !tbaa !11
  %16 = call { ptr, i64 } @_ZNK4absl7debian28AlphaNum5PieceEv(ptr noundef nonnull align 8 dereferenceable(48) %15)
  %17 = getelementptr inbounds nuw { ptr, i64 }, ptr %14, i32 0, i32 0
  %18 = extractvalue { ptr, i64 } %16, 0
  store ptr %18, ptr %17, align 8
  %19 = getelementptr inbounds nuw { ptr, i64 }, ptr %14, i32 0, i32 1
  %20 = extractvalue { ptr, i64 } %16, 1
  store i64 %20, ptr %19, align 8
  %21 = getelementptr inbounds %"class.absl::debian2::string_view", ptr %14, i64 1
  %22 = load ptr, ptr %9, align 8, !tbaa !11
  %23 = call { ptr, i64 } @_ZNK4absl7debian28AlphaNum5PieceEv(ptr noundef nonnull align 8 dereferenceable(48) %22)
  %24 = getelementptr inbounds nuw { ptr, i64 }, ptr %21, i32 0, i32 0
  %25 = extractvalue { ptr, i64 } %23, 0
  store ptr %25, ptr %24, align 8
  %26 = getelementptr inbounds nuw { ptr, i64 }, ptr %21, i32 0, i32 1
  %27 = extractvalue { ptr, i64 } %23, 1
  store i64 %27, ptr %26, align 8
  %28 = getelementptr inbounds %"class.absl::debian2::string_view", ptr %14, i64 2
  %29 = load ptr, ptr %10, align 8, !tbaa !11
  %30 = call { ptr, i64 } @_ZNK4absl7debian28AlphaNum5PieceEv(ptr noundef nonnull align 8 dereferenceable(48) %29)
  %31 = getelementptr inbounds nuw { ptr, i64 }, ptr %28, i32 0, i32 0
  %32 = extractvalue { ptr, i64 } %30, 0
  store ptr %32, ptr %31, align 8
  %33 = getelementptr inbounds nuw { ptr, i64 }, ptr %28, i32 0, i32 1
  %34 = extractvalue { ptr, i64 } %30, 1
  store i64 %34, ptr %33, align 8
  %35 = getelementptr inbounds %"class.absl::debian2::string_view", ptr %14, i64 3
  %36 = load ptr, ptr %11, align 8, !tbaa !11
  %37 = call { ptr, i64 } @_ZNK4absl7debian28AlphaNum5PieceEv(ptr noundef nonnull align 8 dereferenceable(48) %36)
  %38 = getelementptr inbounds nuw { ptr, i64 }, ptr %35, i32 0, i32 0
  %39 = extractvalue { ptr, i64 } %37, 0
  store ptr %39, ptr %38, align 8
  %40 = getelementptr inbounds nuw { ptr, i64 }, ptr %35, i32 0, i32 1
  %41 = extractvalue { ptr, i64 } %37, 1
  store i64 %41, ptr %40, align 8
  %42 = getelementptr inbounds %"class.absl::debian2::string_view", ptr %14, i64 4
  %43 = load ptr, ptr %12, align 8, !tbaa !11
  %44 = call { ptr, i64 } @_ZNK4absl7debian28AlphaNum5PieceEv(ptr noundef nonnull align 8 dereferenceable(48) %43)
  %45 = getelementptr inbounds nuw { ptr, i64 }, ptr %42, i32 0, i32 0
  %46 = extractvalue { ptr, i64 } %44, 0
  store ptr %46, ptr %45, align 8
  %47 = getelementptr inbounds nuw { ptr, i64 }, ptr %42, i32 0, i32 1
  %48 = extractvalue { ptr, i64 } %44, 1
  store i64 %48, ptr %47, align 8
  %49 = getelementptr inbounds nuw %"class.std::initializer_list.6", ptr %13, i32 0, i32 0
  store ptr %14, ptr %49, align 8, !tbaa !74
  %50 = getelementptr inbounds nuw %"class.std::initializer_list.6", ptr %13, i32 0, i32 1
  store i64 5, ptr %50, align 8, !tbaa !76
  %51 = getelementptr inbounds nuw { ptr, i64 }, ptr %13, i32 0, i32 0
  %52 = load ptr, ptr %51, align 8
  %53 = getelementptr inbounds nuw { ptr, i64 }, ptr %13, i32 0, i32 1
  %54 = load i64, ptr %53, align 8
  call void @_ZN4absl7debian216strings_internal9CatPiecesB5cxx11ESt16initializer_listINS0_11string_viewEE(ptr dead_on_unwind writable sret(%"class.std::__cxx11::basic_string") align 8 %0, ptr %52, i64 %54)
  call void @llvm.lifetime.end.p0(i64 80, ptr %14) #16
  ret void
}

; Function Attrs: mustprogress uwtable
define dso_local void @_ZN4i18n12phonenumbers6StrCatB5cxx11ERKNS0_12StringHolderES3_S3_S3_S3_(ptr dead_on_unwind noalias writable sret(%"class.std::__cxx11::basic_string") align 8 %0, ptr noundef nonnull align 8 dereferenceable(48) %1, ptr noundef nonnull align 8 dereferenceable(48) %2, ptr noundef nonnull align 8 dereferenceable(48) %3, ptr noundef nonnull align 8 dereferenceable(48) %4, ptr noundef nonnull align 8 dereferenceable(48) %5) #0 {
  %7 = alloca ptr, align 8
  %8 = alloca ptr, align 8
  %9 = alloca ptr, align 8
  %10 = alloca ptr, align 8
  %11 = alloca ptr, align 8
  %12 = alloca ptr, align 8
  store ptr %0, ptr %7, align 8
  store ptr %1, ptr %8, align 8, !tbaa !70
  store ptr %2, ptr %9, align 8, !tbaa !70
  store ptr %3, ptr %10, align 8, !tbaa !70
  store ptr %4, ptr %11, align 8, !tbaa !70
  store ptr %5, ptr %12, align 8, !tbaa !70
  %13 = load ptr, ptr %8, align 8, !tbaa !70
  %14 = load ptr, ptr %9, align 8, !tbaa !70
  %15 = load ptr, ptr %10, align 8, !tbaa !70
  %16 = load ptr, ptr %11, align 8, !tbaa !70
  %17 = load ptr, ptr %12, align 8, !tbaa !70
  call void @_ZN4absl7debian26StrCatIJEEENSt7__cxx1112basic_stringIcSt11char_traitsIcESaIcEEERKNS0_8AlphaNumESA_SA_SA_SA_DpRKT_(ptr dead_on_unwind writable sret(%"class.std::__cxx11::basic_string") align 8 %0, ptr noundef nonnull align 8 dereferenceable(48) %13, ptr noundef nonnull align 8 dereferenceable(48) %14, ptr noundef nonnull align 8 dereferenceable(48) %15, ptr noundef nonnull align 8 dereferenceable(48) %16, ptr noundef nonnull align 8 dereferenceable(48) %17)
  ret void
}