; Function Attrs: mustprogress uwtable
define dso_local void @_ZN4i18n12phonenumbers6StrCatB5cxx11ERKNS0_12StringHolderES3_S3_S3_S3_(ptr dead_on_unwind noalias writable sret(%"class.std::__cxx11::basic_string") align 8 %0, ptr noundef nonnull readonly align 8 captures(none) dereferenceable(48) %1, ptr noundef nonnull readonly align 8 captures(none) dereferenceable(48) %2, ptr noundef nonnull readonly align 8 captures(none) dereferenceable(48) %3, ptr noundef nonnull readonly align 8 captures(none) dereferenceable(48) %4, ptr noundef nonnull readonly align 8 captures(none) dereferenceable(48) %5) local_unnamed_addr #0 {
  %7 = alloca [5 x %"class.absl::debian2::string_view"], align 8
  call void @llvm.lifetime.start.p0(i64 80, ptr nonnull %7) #19, !noalias !64
  %.sroa.0.0.copyload.i.i = load ptr, ptr %1, align 8, !tbaa !31, !noalias !64
  %.sroa.2.0..sroa_idx.i.i = getelementptr inbounds nuw i8, ptr %1, i64 8
  %.sroa.2.0.copyload.i.i = load i64, ptr %.sroa.2.0..sroa_idx.i.i, align 8, !tbaa !22, !noalias !64
  store ptr %.sroa.0.0.copyload.i.i, ptr %7, align 8, !noalias !64
  %8 = getelementptr inbounds nuw i8, ptr %7, i64 8
  store i64 %.sroa.2.0.copyload.i.i, ptr %8, align 8, !noalias !64
  %9 = getelementptr inbounds nuw i8, ptr %7, i64 16
  %.sroa.0.0.copyload.i5.i = load ptr, ptr %2, align 8, !tbaa !31, !noalias !64
  %.sroa.2.0..sroa_idx.i6.i = getelementptr inbounds nuw i8, ptr %2, i64 8
  %.sroa.2.0.copyload.i7.i = load i64, ptr %.sroa.2.0..sroa_idx.i6.i, align 8, !tbaa !22, !noalias !64
  store ptr %.sroa.0.0.copyload.i5.i, ptr %9, align 8, !noalias !64
  %10 = getelementptr inbounds nuw i8, ptr %7, i64 24
  store i64 %.sroa.2.0.copyload.i7.i, ptr %10, align 8, !noalias !64
  %11 = getelementptr inbounds nuw i8, ptr %7, i64 32
  %.sroa.0.0.copyload.i10.i = load ptr, ptr %3, align 8, !tbaa !31, !noalias !64
  %.sroa.2.0..sroa_idx.i11.i = getelementptr inbounds nuw i8, ptr %3, i64 8
  %.sroa.2.0.copyload.i12.i = load i64, ptr %.sroa.2.0..sroa_idx.i11.i, align 8, !tbaa !22, !noalias !64
  store ptr %.sroa.0.0.copyload.i10.i, ptr %11, align 8, !noalias !64
  %12 = getelementptr inbounds nuw i8, ptr %7, i64 40
  store i64 %.sroa.2.0.copyload.i12.i, ptr %12, align 8, !noalias !64
  %13 = getelementptr inbounds nuw i8, ptr %7, i64 48
  %.sroa.0.0.copyload.i15.i = load ptr, ptr %4, align 8, !tbaa !31, !noalias !64
  %.sroa.2.0..sroa_idx.i16.i = getelementptr inbounds nuw i8, ptr %4, i64 8
  %.sroa.2.0.copyload.i17.i = load i64, ptr %.sroa.2.0..sroa_idx.i16.i, align 8, !tbaa !22, !noalias !64
  store ptr %.sroa.0.0.copyload.i15.i, ptr %13, align 8, !noalias !64
  %14 = getelementptr inbounds nuw i8, ptr %7, i64 56
  store i64 %.sroa.2.0.copyload.i17.i, ptr %14, align 8, !noalias !64
  %15 = getelementptr inbounds nuw i8, ptr %7, i64 64
  %.sroa.0.0.copyload.i20.i = load ptr, ptr %5, align 8, !tbaa !31, !noalias !64
  %.sroa.2.0..sroa_idx.i21.i = getelementptr inbounds nuw i8, ptr %5, i64 8
  %.sroa.2.0.copyload.i22.i = load i64, ptr %.sroa.2.0..sroa_idx.i21.i, align 8, !tbaa !22, !noalias !64
  store ptr %.sroa.0.0.copyload.i20.i, ptr %15, align 8, !noalias !64
  %16 = getelementptr inbounds nuw i8, ptr %7, i64 72
  store i64 %.sroa.2.0.copyload.i22.i, ptr %16, align 8, !noalias !64
  call void @_ZN4absl7debian216strings_internal9CatPiecesB5cxx11ESt16initializer_listINS0_11string_viewEE(ptr dead_on_unwind writable sret(%"class.std::__cxx11::basic_string") align 8 %0, ptr nonnull %7, i64 5)
  call void @llvm.lifetime.end.p0(i64 80, ptr nonnull %7) #19, !noalias !64
  ret void
}